target datalayout = "e-m:e-p270:32:32-p271:32:32-p272:64:64-i64:64-i128:128-f80:128-n8:16:32:64-S128"
target triple = "x86_64-pc-linux-gnu"

@.str.9 = private unnamed_addr constant [5 x i8] c"HPKE\00", align 1

; Function Attrs: alwaysinline nounwind
define internal ptr @memcpy.inline(ptr noalias %0, ptr noalias %1, i64 %2) #3 {
  %4 = alloca ptr, align 8
  %5 = alloca ptr, align 8
  %6 = alloca i64, align 8
  store ptr %0, ptr %4, align 8
  store ptr %1, ptr %5, align 8
  store i64 %2, ptr %6, align 8
  %7 = load ptr, ptr %4, align 8
  %8 = load ptr, ptr %5, align 8
  %9 = load i64, ptr %6, align 8
  %10 = load ptr, ptr %4, align 8
  %11 = call i64 @llvm.objectsize.i64.p0(ptr %10, i1 false, i1 true, i1 true)
  %12 = call ptr @__memcpy_chk(ptr noundef %7, ptr noundef %8, i64 noundef %9, i64 noundef %11) #9
  ret ptr %12
}

; Function Attrs: nounwind null_pointer_is_valid sspstrong uwtable
define void @hpke_suite_id(i16 noundef zeroext %0, i16 noundef zeroext %1, i16 noundef zeroext %2, ptr noundef %3) #5 {
  %5 = alloca i16, align 2
  %6 = alloca i16, align 2
  %7 = alloca i16, align 2
  %8 = alloca ptr, align 8
  %9 = alloca i8, align 1
  store i16 %0, ptr %5, align 2
  store i16 %1, ptr %6, align 2
  store i16 %2, ptr %7, align 2
  store ptr %3, ptr %8, align 8
  call void @llvm.lifetime.start.p0(i64 1, ptr %9) #9
  store i8 0, ptr %9, align 1
  %10 = load ptr, ptr %8, align 8
  %11 = call ptr @memcpy.inline(ptr noundef %10, ptr noundef @.str.9, i64 noundef 4) #9
  %12 = load i8, ptr %9, align 1
  %13 = zext i8 %12 to i64
  %14 = add i64 %13, 4
  %15 = trunc i64 %14 to i8
  store i8 %15, ptr %9, align 1
  %16 = load i16, ptr %5, align 2
  %17 = zext i16 %16 to i32
  %18 = ashr i32 %17, 8
  %19 = and i32 %18, 255
  %20 = trunc i32 %19 to i8
  %21 = load ptr, ptr %8, align 8
  %22 = load i8, ptr %9, align 1
  %23 = add i8 %22, 1
  store i8 %23, ptr %9, align 1
  %24 = zext i8 %22 to i64
  %25 = getelementptr i8, ptr %21, i64 %24
  store i8 %20, ptr %25, align 1
  %26 = load i16, ptr %5, align 2
  %27 = zext i16 %26 to i32
  %28 = and i32 %27, 255
  %29 = trunc i32 %28 to i8
  %30 = load ptr, ptr %8, align 8
  %31 = load i8, ptr %9, align 1
  %32 = add i8 %31, 1
  store i8 %32, ptr %9, align 1
  %33 = zext i8 %31 to i64
  %34 = getelementptr i8, ptr %30, i64 %33
  store i8 %29, ptr %34, align 1
  %35 = load i16, ptr %6, align 2
  %36 = zext i16 %35 to i32
  %37 = ashr i32 %36, 8
  %38 = and i32 %37, 255
  %39 = trunc i32 %38 to i8
  %40 = load ptr, ptr %8, align 8
  %41 = load i8, ptr %9, align 1
  %42 = add i8 %41, 1
  store i8 %42, ptr %9, align 1
  %43 = zext i8 %41 to i64
  %44 = getelementptr i8, ptr %40, i64 %43
  store i8 %39, ptr %44, align 1
  %45 = load i16, ptr %6, align 2
  %46 = zext i16 %45 to i32
  %47 = and i32 %46, 255
  %48 = trunc i32 %47 to i8
  %49 = load ptr, ptr %8, align 8
  %50 = load i8, ptr %9, align 1
  %51 = add i8 %50, 1
  store i8 %51, ptr %9, align 1
  %52 = zext i8 %50 to i64
  %53 = getelementptr i8, ptr %49, i64 %52
  store i8 %48, ptr %53, align 1
  %54 = load i16, ptr %7, align 2
  %55 = zext i16 %54 to i32
  %56 = ashr i32 %55, 8
  %57 = and i32 %56, 255
  %58 = trunc i32 %57 to i8
  %59 = load ptr, ptr %8, align 8
  %60 = load i8, ptr %9, align 1
  %61 = add i8 %60, 1
  store i8 %61, ptr %9, align 1
  %62 = zext i8 %60 to i64
  %63 = getelementptr i8, ptr %59, i64 %62
  store i8 %58, ptr %63, align 1
  %64 = load i16, ptr %7, align 2
  %65 = zext i16 %64 to i32
  %66 = and i32 %65, 255
  %67 = trunc i32 %66 to i8
  %68 = load ptr, ptr %8, align 8
  %69 = load i8, ptr %9, align 1
  %70 = add i8 %69, 1
  store i8 %70, ptr %9, align 1
  %71 = zext i8 %69 to i64
  %72 = getelementptr i8, ptr %68, i64 %71
  store i8 %67, ptr %72, align 1
  call void @llvm.lifetime.end.p0(i64 1, ptr %9) #9
  ret void
}