; Function Attrs: nofree nounwind null_pointer_is_valid sspstrong memory(argmem: readwrite) uwtable
define void @hpke_suite_id(i16 noundef zeroext %0, i16 noundef zeroext %1, i16 noundef zeroext %2, ptr noundef %3) local_unnamed_addr #5 {
  store i32 1162563656, ptr %3, align 1
  %5 = lshr i16 %0, 8
  %6 = trunc nuw i16 %5 to i8
  %7 = getelementptr i8, ptr %3, i64 4
  store i8 %6, ptr %7, align 1
  %8 = trunc i16 %0 to i8
  %9 = getelementptr i8, ptr %3, i64 5
  store i8 %8, ptr %9, align 1
  %10 = lshr i16 %1, 8
  %11 = trunc nuw i16 %10 to i8
  %12 = getelementptr i8, ptr %3, i64 6
  store i8 %11, ptr %12, align 1
  %13 = trunc i16 %1 to i8
  %14 = getelementptr i8, ptr %3, i64 7
  store i8 %13, ptr %14, align 1
  %15 = lshr i16 %2, 8
  %16 = trunc nuw i16 %15 to i8
  %17 = getelementptr i8, ptr %3, i64 8
  store i8 %16, ptr %17, align 1
  %18 = trunc i16 %2 to i8
  %19 = getelementptr i8, ptr %3, i64 9
  store i8 %18, ptr %19, align 1
  ret void
}